; Function Attrs: nounwind uwtable
define ptr @OSSL_CMP_MSG_new(ptr noundef %0, ptr noundef %1) local_unnamed_addr #0 {
  %3 = tail call ptr @OSSL_CMP_MSG_it() #7
  %4 = tail call ptr @ASN1_item_new_ex(ptr noundef %3, ptr noundef %0, ptr noundef %1) #7
  %.not.i = icmp eq ptr %4, null
  br i1 %.not.i, label %ossl_cmp_msg_set0_libctx.exit, label %5

5:                                                ; preds = %2
  %6 = getelementptr inbounds nuw i8, ptr %4, i64 32
  store ptr %0, ptr %6, align 8, !tbaa !3
  %7 = getelementptr inbounds nuw i8, ptr %4, i64 40
  %8 = load ptr, ptr %7, align 8, !tbaa !14
  tail call void @CRYPTO_free(ptr noundef %8, ptr noundef nonnull @.str, i32 noundef 54) #7
  store ptr null, ptr %7, align 8, !tbaa !14
  %.not11.i = icmp eq ptr %1, null
  br i1 %.not11.i, label %ossl_cmp_msg_set0_libctx.exit, label %9

9:                                                ; preds = %5
  %10 = tail call noalias ptr @CRYPTO_strdup(ptr noundef nonnull %1, ptr noundef nonnull @.str, i32 noundef 57) #7
  store ptr %10, ptr %7, align 8, !tbaa !14
  %11 = icmp eq ptr %10, null
  br i1 %11, label %12, label %ossl_cmp_msg_set0_libctx.exit

12:                                               ; preds = %9
  %13 = tail call ptr @OSSL_CMP_MSG_it() #7
  tail call void @ASN1_item_free(ptr noundef nonnull %4, ptr noundef %13) #7
  br label %ossl_cmp_msg_set0_libctx.exit

ossl_cmp_msg_set0_libctx.exit:                    ; preds = %9, %5, %2, %12
  %.0 = phi ptr [ null, %12 ], [ null, %2 ], [ %4, %5 ], [ %4, %9 ]
  ret ptr %.0
}